; Function Attrs: mustprogress uwtable
define void @_ZNK6casadi7Diagcat16split_primitivesERKNS_2MXERN9__gnu_cxx17__normal_iteratorIPS1_St6vectorIS1_SaIS1_EEEE(ptr noundef nonnull align 8 dereferenceable(64) %0, ptr noundef nonnull align 8 dereferenceable(8) %1, ptr noundef nonnull align 1 %2) unnamed_addr #3 align 2 personality ptr @__gxx_personality_v0 {
  %4 = alloca %"struct.std::pair", align 8
  %5 = alloca %"class.std::vector", align 8
  call void @_ZNK6casadi7Diagcat3offEv(ptr dead_on_unwind nonnull writable sret(%"struct.std::pair") align 8 %4, ptr noundef nonnull align 8 dereferenceable(64) %0)
  %6 = getelementptr inbounds i8, ptr %4, i64 24
  invoke void @_ZN6casadi2MX9diagsplitERKS0_RKSt6vectorIxSaIxEES7_(ptr dead_on_unwind nonnull writable sret(%"class.std::vector") align 8 %5, ptr noundef nonnull align 8 dereferenceable(8) %1, ptr noundef nonnull align 8 dereferenceable(24) %4, ptr noundef nonnull align 8 dereferenceable(24) %6)
          to label %_ZN6casadi9diagsplitERKNS_2MXERKSt6vectorIxSaIxEES7_.exit.preheader unwind label %37

_ZN6casadi9diagsplitERKNS_2MXERKSt6vectorIxSaIxEES7_.exit.preheader: ; preds = %3
  %7 = getelementptr inbounds i8, ptr %5, i64 8
  %8 = load ptr, ptr %7, align 8
  %9 = load ptr, ptr %5, align 8
  %.not = icmp eq ptr %8, %9
  br i1 %.not, label %_ZSt8_DestroyIPN6casadi2MXES1_EvT_S3_RSaIT0_E.exit.i, label %.lr.ph

.lr.ph:                                           ; preds = %_ZN6casadi9diagsplitERKNS_2MXERKSt6vectorIxSaIxEES7_.exit.preheader
  %10 = getelementptr inbounds i8, ptr %0, i64 32
  %11 = getelementptr inbounds i8, ptr %0, i64 40
  br label %12

12:                                               ; preds = %.lr.ph, %_ZN6casadi9diagsplitERKNS_2MXERKSt6vectorIxSaIxEES7_.exit
  %.022 = phi i64 [ 0, %.lr.ph ], [ %29, %_ZN6casadi9diagsplitERKNS_2MXERKSt6vectorIxSaIxEES7_.exit ]
  %13 = load ptr, ptr %11, align 8
  %14 = load ptr, ptr %10, align 8
  %15 = ptrtoint ptr %13 to i64
  %16 = ptrtoint ptr %14 to i64
  %17 = sub i64 %15, %16
  %18 = ashr exact i64 %17, 3
  %.not.i.i.i = icmp ugt i64 %18, %.022
  br i1 %.not.i.i.i, label %20, label %19

19:                                               ; preds = %12
  invoke void (ptr, ...) @_ZSt24__throw_out_of_range_fmtPKcz(ptr noundef nonnull @.str.27, i64 noundef %.022, i64 noundef %18) #19
          to label %.noexc unwind label %.loopexit.split-lp

.noexc:                                           ; preds = %19
  unreachable

20:                                               ; preds = %12
  %21 = getelementptr inbounds %"class.casadi::MX", ptr %14, i64 %.022
  %22 = invoke noundef ptr @_ZNK6casadi2MXptEv(ptr noundef nonnull align 8 dereferenceable(8) %21)
          to label %23 unwind label %.loopexit

23:                                               ; preds = %20
  %24 = load ptr, ptr %5, align 8
  %25 = getelementptr inbounds %"class.casadi::MX", ptr %24, i64 %.022
  %26 = load ptr, ptr %22, align 8
  %27 = getelementptr inbounds i8, ptr %26, i64 232
  %28 = load ptr, ptr %27, align 8
  invoke void %28(ptr noundef nonnull align 8 dereferenceable(64) %22, ptr noundef nonnull align 8 dereferenceable(8) %25, ptr noundef nonnull align 1 %2)
          to label %_ZN6casadi9diagsplitERKNS_2MXERKSt6vectorIxSaIxEES7_.exit unwind label %.loopexit

_ZN6casadi9diagsplitERKNS_2MXERKSt6vectorIxSaIxEES7_.exit: ; preds = %23
  %29 = add nuw nsw i64 %.022, 1
  %30 = load ptr, ptr %7, align 8
  %31 = load ptr, ptr %5, align 8
  %32 = ptrtoint ptr %30 to i64
  %33 = ptrtoint ptr %31 to i64
  %34 = sub i64 %32, %33
  %35 = ashr exact i64 %34, 3
  %36 = icmp ult i64 %29, %35
  br i1 %36, label %12, label %_ZN6casadi9diagsplitERKNS_2MXERKSt6vectorIxSaIxEES7_.exit._crit_edge, !llvm.loop !51

37:                                               ; preds = %3
  %38 = landingpad { ptr, i32 }
          cleanup
  br label %47

.loopexit:                                        ; preds = %20, %23
  %lpad.loopexit = landingpad { ptr, i32 }
          cleanup
  br label %39

.loopexit.split-lp:                               ; preds = %19
  %lpad.loopexit.split-lp = landingpad { ptr, i32 }
          cleanup
  br label %39

39:                                               ; preds = %.loopexit.split-lp, %.loopexit
  %lpad.phi = phi { ptr, i32 } [ %lpad.loopexit, %.loopexit ], [ %lpad.loopexit.split-lp, %.loopexit.split-lp ]
  call void @_ZNSt6vectorIN6casadi2MXESaIS1_EED2Ev(ptr noundef nonnull align 8 dereferenceable(24) %5) #17
  br label %47

_ZN6casadi9diagsplitERKNS_2MXERKSt6vectorIxSaIxEES7_.exit._crit_edge: ; preds = %_ZN6casadi9diagsplitERKNS_2MXERKSt6vectorIxSaIxEES7_.exit
  %.not4.i.i.i.i = icmp eq ptr %31, %30
  br i1 %.not4.i.i.i.i, label %_ZSt8_DestroyIPN6casadi2MXES1_EvT_S3_RSaIT0_E.exit.i, label %.lr.ph.i.i.i.i

.lr.ph.i.i.i.i:                                   ; preds = %_ZN6casadi9diagsplitERKNS_2MXERKSt6vectorIxSaIxEES7_.exit._crit_edge, %.lr.ph.i.i.i.i
  %.05.i.i.i.i = phi ptr [ %40, %.lr.ph.i.i.i.i ], [ %31, %_ZN6casadi9diagsplitERKNS_2MXERKSt6vectorIxSaIxEES7_.exit._crit_edge ]
  call void @_ZN6casadi2MXD1Ev(ptr noundef nonnull align 8 dereferenceable(8) %.05.i.i.i.i) #17
  %40 = getelementptr inbounds i8, ptr %.05.i.i.i.i, i64 8
  %.not.i.i.i.i = icmp eq ptr %40, %30
  br i1 %.not.i.i.i.i, label %_ZSt8_DestroyIPN6casadi2MXES1_EvT_S3_RSaIT0_E.exitthread-pre-split.i, label %.lr.ph.i.i.i.i, !llvm.loop !24

_ZSt8_DestroyIPN6casadi2MXES1_EvT_S3_RSaIT0_E.exitthread-pre-split.i: ; preds = %.lr.ph.i.i.i.i
  %.pr.i = load ptr, ptr %5, align 8
  br label %_ZSt8_DestroyIPN6casadi2MXES1_EvT_S3_RSaIT0_E.exit.i

_ZSt8_DestroyIPN6casadi2MXES1_EvT_S3_RSaIT0_E.exit.i: ; preds = %_ZN6casadi9diagsplitERKNS_2MXERKSt6vectorIxSaIxEES7_.exit.preheader, %_ZSt8_DestroyIPN6casadi2MXES1_EvT_S3_RSaIT0_E.exitthread-pre-split.i, %_ZN6casadi9diagsplitERKNS_2MXERKSt6vectorIxSaIxEES7_.exit._crit_edge
  %41 = phi ptr [ %.pr.i, %_ZSt8_DestroyIPN6casadi2MXES1_EvT_S3_RSaIT0_E.exitthread-pre-split.i ], [ %30, %_ZN6casadi9diagsplitERKNS_2MXERKSt6vectorIxSaIxEES7_.exit._crit_edge ], [ %8, %_ZN6casadi9diagsplitERKNS_2MXERKSt6vectorIxSaIxEES7_.exit.preheader ]
  %.not.i.i.i11 = icmp eq ptr %41, null
  br i1 %.not.i.i.i11, label %_ZNSt6vectorIN6casadi2MXESaIS1_EED2Ev.exit, label %42

42:                                               ; preds = %_ZSt8_DestroyIPN6casadi2MXES1_EvT_S3_RSaIT0_E.exit.i
  call void @_ZdlPv(ptr noundef nonnull %41) #21
  br label %_ZNSt6vectorIN6casadi2MXESaIS1_EED2Ev.exit

_ZNSt6vectorIN6casadi2MXESaIS1_EED2Ev.exit:       ; preds = %_ZSt8_DestroyIPN6casadi2MXES1_EvT_S3_RSaIT0_E.exit.i, %42
  %43 = load ptr, ptr %6, align 8
  %.not.i.i.i.i12 = icmp eq ptr %43, null
  br i1 %.not.i.i.i.i12, label %_ZNSt6vectorIxSaIxEED2Ev.exit.i, label %44

44:                                               ; preds = %_ZNSt6vectorIN6casadi2MXESaIS1_EED2Ev.exit
  call void @_ZdlPv(ptr noundef nonnull %43) #21
  br label %_ZNSt6vectorIxSaIxEED2Ev.exit.i

_ZNSt6vectorIxSaIxEED2Ev.exit.i:                  ; preds = %44, %_ZNSt6vectorIN6casadi2MXESaIS1_EED2Ev.exit
  %45 = load ptr, ptr %4, align 8
  %.not.i.i.i1.i = icmp eq ptr %45, null
  br i1 %.not.i.i.i1.i, label %_ZNSt4pairISt6vectorIxSaIxEES2_ED2Ev.exit, label %46

46:                                               ; preds = %_ZNSt6vectorIxSaIxEED2Ev.exit.i
  call void @_ZdlPv(ptr noundef nonnull %45) #21
  br label %_ZNSt4pairISt6vectorIxSaIxEES2_ED2Ev.exit

_ZNSt4pairISt6vectorIxSaIxEES2_ED2Ev.exit:        ; preds = %_ZNSt6vectorIxSaIxEED2Ev.exit.i, %46
  ret void

47:                                               ; preds = %39, %37
  %.pn = phi { ptr, i32 } [ %lpad.phi, %39 ], [ %38, %37 ]
  call void @_ZNSt4pairISt6vectorIxSaIxEES2_ED2Ev(ptr noundef nonnull align 8 dereferenceable(48) %4) #17
  resume { ptr, i32 } %.pn
}